target datalayout = "e-m:e-p270:32:32-p271:32:32-p272:64:64-i64:64-i128:128-f80:128-n8:16:32:64-S128"
target triple = "x86_64-unknown-linux-gnu"

%struct.CPUArchState = type { [32 x i64], [32 x i64], [512 x i64], i64, i64, i64, i64, i64, i8, i64, i64, i64, [32 x i64], i64, %struct.float_status, i64, i64, i64, i64, i64, i64, i32, i32, i32, i32, i32, i64, i64, i32, i64, i64, ptr, ptr, i8, i64, i64, [8 x i8] }
%struct.float_status = type { i16, i8, i8, i8, i8, i8, i8, i8, i8, i8, i8, i8 }

; Function Attrs: nounwind sspstrong uwtable
define internal i64 @int128_getlo(i64 noundef %a.coerce0, i64 noundef %a.coerce1) #1 {
entry:
  %a = alloca i128, align 16
  %a.addr = alloca i128, align 16
  %0 = getelementptr inbounds { i64, i64 }, ptr %a, i32 0, i32 0
  store i64 %a.coerce0, ptr %0, align 16
  %1 = getelementptr inbounds { i64, i64 }, ptr %a, i32 0, i32 1
  store i64 %a.coerce1, ptr %1, align 8
  %a1 = load i128, ptr %a, align 16
  store i128 %a1, ptr %a.addr, align 16
  %2 = load i128, ptr %a.addr, align 16
  %conv = trunc i128 %2 to i64
  ret i64 %conv
}

; Function Attrs: nounwind sspstrong uwtable
define internal i64 @int128_gethi(i64 noundef %a.coerce0, i64 noundef %a.coerce1) #1 {
entry:
  %a = alloca i128, align 16
  %a.addr = alloca i128, align 16
  %0 = getelementptr inbounds { i64, i64 }, ptr %a, i32 0, i32 0
  store i64 %a.coerce0, ptr %0, align 16
  %1 = getelementptr inbounds { i64, i64 }, ptr %a, i32 0, i32 1
  store i64 %a.coerce1, ptr %1, align 8
  %a1 = load i128, ptr %a, align 16
  store i128 %a1, ptr %a.addr, align 16
  %2 = load i128, ptr %a.addr, align 16
  %shr = ashr i128 %2, 64
  %conv = trunc i128 %shr to i64
  ret i64 %conv
}

; Function Attrs: nounwind sspstrong uwtable
define internal { i64, i64 } @int128_zero() #1 {
entry:
  %retval = alloca i128, align 16
  store i128 0, ptr %retval, align 16
  %0 = load { i64, i64 }, ptr %retval, align 16
  ret { i64, i64 } %0
}

; Function Attrs: nounwind sspstrong uwtable
define dso_local i64 @helper_csrr_i128(ptr noundef %env, i32 noundef %csr) #1 {
entry:
  %env.addr = alloca ptr, align 8
  %csr.addr = alloca i32, align 4
  %rv = alloca i128, align 16
  %coerce = alloca i128, align 16
  %ret = alloca i32, align 4
  %coerce2 = alloca i128, align 16
  %coerce4 = alloca i128, align 16
  %coerce5 = alloca i128, align 16
  %coerce7 = alloca i128, align 16
  %coerce9 = alloca i128, align 16
  store ptr %env, ptr %env.addr, align 8
  store i32 %csr, ptr %csr.addr, align 4
  %call = call { i64, i64 } @int128_zero()
  %0 = getelementptr inbounds { i64, i64 }, ptr %coerce, i32 0, i32 0
  %1 = extractvalue { i64, i64 } %call, 0
  store i64 %1, ptr %0, align 16
  %2 = getelementptr inbounds { i64, i64 }, ptr %coerce, i32 0, i32 1
  %3 = extractvalue { i64, i64 } %call, 1
  store i64 %3, ptr %2, align 8
  %4 = load i128, ptr %coerce, align 16
  store i128 %4, ptr %rv, align 16
  %5 = load ptr, ptr %env.addr, align 8
  %6 = load i32, ptr %csr.addr, align 4
  %call1 = call { i64, i64 } @int128_zero()
  %7 = getelementptr inbounds { i64, i64 }, ptr %coerce2, i32 0, i32 0
  %8 = extractvalue { i64, i64 } %call1, 0
  store i64 %8, ptr %7, align 16
  %9 = getelementptr inbounds { i64, i64 }, ptr %coerce2, i32 0, i32 1
  %10 = extractvalue { i64, i64 } %call1, 1
  store i64 %10, ptr %9, align 8
  %11 = load i128, ptr %coerce2, align 16
  %call3 = call { i64, i64 } @int128_zero()
  %12 = getelementptr inbounds { i64, i64 }, ptr %coerce4, i32 0, i32 0
  %13 = extractvalue { i64, i64 } %call3, 0
  store i64 %13, ptr %12, align 16
  %14 = getelementptr inbounds { i64, i64 }, ptr %coerce4, i32 0, i32 1
  %15 = extractvalue { i64, i64 } %call3, 1
  store i64 %15, ptr %14, align 8
  %16 = load i128, ptr %coerce4, align 16
  store i128 %11, ptr %coerce5, align 16
  %17 = getelementptr inbounds { i64, i64 }, ptr %coerce5, i32 0, i32 0
  %18 = load i64, ptr %17, align 16
  %19 = getelementptr inbounds { i64, i64 }, ptr %coerce5, i32 0, i32 1
  %20 = load i64, ptr %19, align 8
  %call6 = call i32 @riscv_csrrw_i128(ptr noundef %5, i32 noundef %6, ptr noundef %rv, i64 noundef %18, i64 noundef %20, i128 noundef %16)
  store i32 %call6, ptr %ret, align 4
  %21 = load i32, ptr %ret, align 4
  %cmp = icmp ne i32 %21, -1
  br i1 %cmp, label %if.then, label %if.end

if.then:                                          ; preds = %entry
  %22 = load ptr, ptr %env.addr, align 8
  %23 = load i32, ptr %ret, align 4
  %24 = call ptr @llvm.returnaddress(i32 0)
  %25 = ptrtoint ptr %24 to i64
  call void @riscv_raise_exception(ptr noundef %22, i32 noundef %23, i64 noundef %25) #6
  unreachable

if.end:                                           ; preds = %entry
  %26 = load i128, ptr %rv, align 16
  store i128 %26, ptr %coerce7, align 16
  %27 = getelementptr inbounds { i64, i64 }, ptr %coerce7, i32 0, i32 0
  %28 = load i64, ptr %27, align 16
  %29 = getelementptr inbounds { i64, i64 }, ptr %coerce7, i32 0, i32 1
  %30 = load i64, ptr %29, align 8
  %call8 = call i64 @int128_gethi(i64 noundef %28, i64 noundef %30)
  %31 = load ptr, ptr %env.addr, align 8
  %retxh = getelementptr inbounds %struct.CPUArchState, ptr %31, i32 0, i32 26
  store i64 %call8, ptr %retxh, align 8
  %32 = load i128, ptr %rv, align 16
  store i128 %32, ptr %coerce9, align 16
  %33 = getelementptr inbounds { i64, i64 }, ptr %coerce9, i32 0, i32 0
  %34 = load i64, ptr %33, align 16
  %35 = getelementptr inbounds { i64, i64 }, ptr %coerce9, i32 0, i32 1
  %36 = load i64, ptr %35, align 8
  %call10 = call i64 @int128_getlo(i64 noundef %34, i64 noundef %36)
  ret i64 %call10
}