; Function Attrs: nounwind sspstrong uwtable
define dso_local i64 @helper_csrr_i128(ptr noundef %env, i32 noundef %csr) local_unnamed_addr #2 {
entry:
  %rv = alloca i128, align 16
  store i128 0, ptr %rv, align 16
  %call6 = call i32 @riscv_csrrw_i128(ptr noundef %env, i32 noundef %csr, ptr noundef nonnull %rv, i64 noundef 0, i64 noundef 0, i128 noundef 0) #9
  %cmp.not = icmp eq i32 %call6, -1
  br i1 %cmp.not, label %if.end, label %if.then

if.then:                                          ; preds = %entry
  %0 = call ptr @llvm.returnaddress(i32 0)
  %1 = ptrtoint ptr %0 to i64
  call void @riscv_raise_exception(ptr noundef %env, i32 noundef %call6, i64 noundef %1) #8
  unreachable

if.end:                                           ; preds = %entry
  %2 = load i128, ptr %rv, align 16
  %coerce7.sroa.2.0.extract.shift = lshr i128 %2, 64
  %coerce7.sroa.2.0.extract.trunc = trunc nuw i128 %coerce7.sroa.2.0.extract.shift to i64
  %retxh = getelementptr inbounds nuw i8, ptr %env, i64 5032
  store i64 %coerce7.sroa.2.0.extract.trunc, ptr %retxh, align 8
  %coerce9.sroa.0.0.extract.trunc = trunc i128 %2 to i64
  ret i64 %coerce9.sroa.0.0.extract.trunc
}